target datalayout = "e-m:e-p270:32:32-p271:32:32-p272:64:64-i64:64-i128:128-f80:128-n8:16:32:64-S128"
target triple = "x86_64-pc-linux-gnu"

%class.cmCPackIFWCommon = type { ptr }

; Function Attrs: mustprogress uwtable
define dso_local noundef zeroext i1 @_ZNK16cmCPackIFWCommon4IsOnERKNSt7__cxx1112basic_stringIcSt11char_traitsIcESaIcEEE(ptr noundef nonnull align 8 dereferenceable(8) %0, ptr noundef nonnull align 8 dereferenceable(32) %1) #5 align 2 {
  %3 = alloca ptr, align 8
  %4 = alloca ptr, align 8
  store ptr %0, ptr %3, align 8, !tbaa !4
  store ptr %1, ptr %4, align 8, !tbaa !12
  %5 = load ptr, ptr %3, align 8
  %6 = getelementptr inbounds nuw %class.cmCPackIFWCommon, ptr %5, i32 0, i32 0
  %7 = load ptr, ptr %6, align 8, !tbaa !9
  %8 = icmp ne ptr %7, null
  br i1 %8, label %9, label %14

9:                                                ; preds = %2
  %10 = getelementptr inbounds nuw %class.cmCPackIFWCommon, ptr %5, i32 0, i32 0
  %11 = load ptr, ptr %10, align 8, !tbaa !9
  %12 = load ptr, ptr %4, align 8, !tbaa !12
  %13 = call noundef zeroext i1 @_ZNK16cmCPackGenerator4IsOnERKNSt7__cxx1112basic_stringIcSt11char_traitsIcESaIcEEE(ptr noundef nonnull align 8 dereferenceable(360) %11, ptr noundef nonnull align 8 dereferenceable(32) %12)
  br label %14

14:                                               ; preds = %9, %2
  %15 = phi i1 [ false, %2 ], [ %13, %9 ]
  ret i1 %15
}